target datalayout = "e-m:e-p270:32:32-p271:32:32-p272:64:64-i64:64-i128:128-f80:128-n8:16:32:64-S128"
target triple = "x86_64-pc-linux-gnu"

@_ZTISt12out_of_range = linkonce_odr constant { ptr, ptr, ptr } { ptr getelementptr inbounds (ptr, ptr @_ZTVN10__cxxabiv120__si_class_type_infoE, i64 2), ptr @_ZTSSt12out_of_range, ptr @_ZTISt11logic_error }, comdat, align 8

; Function Attrs: mustprogress nounwind uwtable
define linkonce_odr noundef i32 @_ZNSt14numeric_limitsIiE3minEv() #2 comdat align 2 {
  ret i32 -2147483648
}

; Function Attrs: mustprogress nounwind uwtable
define linkonce_odr noundef i32 @_ZNSt14numeric_limitsIiE3maxEv() #2 comdat align 2 {
  ret i32 2147483647
}

; Function Attrs: mustprogress uwtable
define noundef i32 @_ZN7rocksdb10ParseInt32ERKNSt7__cxx1112basic_stringIcSt11char_traitsIcESaIcEEE(ptr noundef nonnull align 8 dereferenceable(32) %0) #3 personality ptr @__gxx_personality_v0 {
  %2 = alloca ptr, align 8
  %3 = alloca i64, align 8
  %4 = alloca ptr, align 8
  %5 = alloca i32, align 4
  store ptr %0, ptr %2, align 8, !tbaa !9
  call void @llvm.lifetime.start.p0(i64 8, ptr %3) #4
  %6 = load ptr, ptr %2, align 8, !tbaa !9
  %7 = call noundef i64 @_ZN7rocksdb10ParseInt64ERKNSt7__cxx1112basic_stringIcSt11char_traitsIcESaIcEEE(ptr noundef nonnull align 8 dereferenceable(32) %6)
  store i64 %7, ptr %3, align 8, !tbaa !32
  %8 = load i64, ptr %3, align 8, !tbaa !32
  %9 = call noundef i32 @_ZNSt14numeric_limitsIiE3maxEv() #4
  %10 = sext i32 %9 to i64
  %11 = icmp sle i64 %8, %10
  br i1 %11, label %12, label %20

12:                                               ; preds = %1
  %13 = load i64, ptr %3, align 8, !tbaa !32
  %14 = call noundef i32 @_ZNSt14numeric_limitsIiE3minEv() #4
  %15 = sext i32 %14 to i64
  %16 = icmp sge i64 %13, %15
  br i1 %16, label %17, label %20

17:                                               ; preds = %12
  %18 = load i64, ptr %3, align 8, !tbaa !32
  %19 = trunc i64 %18 to i32
  call void @llvm.lifetime.end.p0(i64 8, ptr %3) #4
  ret i32 %19

20:                                               ; preds = %12, %1
  %21 = call ptr @__cxa_allocate_exception(i64 16) #4
  %22 = load ptr, ptr %2, align 8, !tbaa !9
  invoke void @_ZNSt12out_of_rangeC1ERKNSt7__cxx1112basic_stringIcSt11char_traitsIcESaIcEEE(ptr noundef nonnull align 8 dereferenceable(16) %21, ptr noundef nonnull align 8 dereferenceable(32) %22)
          to label %23 unwind label %24

23:                                               ; preds = %20
  call void @__cxa_throw(ptr %21, ptr @_ZTISt12out_of_range, ptr @_ZNSt12out_of_rangeD1Ev) #18
  unreachable

24:                                               ; preds = %20
  %25 = landingpad { ptr, i32 }
          cleanup
  %26 = extractvalue { ptr, i32 } %25, 0
  store ptr %26, ptr %4, align 8
  %27 = extractvalue { ptr, i32 } %25, 1
  store i32 %27, ptr %5, align 4
  call void @__cxa_free_exception(ptr %21) #4
  call void @llvm.lifetime.end.p0(i64 8, ptr %3) #4
  br label %28

28:                                               ; preds = %24
  %29 = load ptr, ptr %4, align 8
  %30 = load i32, ptr %5, align 4
  %31 = insertvalue { ptr, i32 } poison, ptr %29, 0
  %32 = insertvalue { ptr, i32 } %31, i32 %30, 1
  resume { ptr, i32 } %32
}