; Function Attrs: mustprogress uwtable
define noundef i32 @_ZN7rocksdb10ParseInt32ERKNSt7__cxx1112basic_stringIcSt11char_traitsIcESaIcEEE(ptr noundef nonnull align 8 dereferenceable(32) %0) local_unnamed_addr #3 personality ptr @__gxx_personality_v0 {
  %2 = tail call noundef i64 @_ZN7rocksdb10ParseInt64ERKNSt7__cxx1112basic_stringIcSt11char_traitsIcESaIcEEE(ptr noundef nonnull align 8 dereferenceable(32) %0)
  %3 = add i64 %2, -2147483648
  %or.cond = icmp ult i64 %3, -4294967296
  br i1 %or.cond, label %6, label %4

4:                                                ; preds = %1
  %5 = trunc nsw i64 %2 to i32
  ret i32 %5

6:                                                ; preds = %1
  %7 = tail call ptr @__cxa_allocate_exception(i64 16) #26
  invoke void @_ZNSt12out_of_rangeC1ERKNSt7__cxx1112basic_stringIcSt11char_traitsIcESaIcEEE(ptr noundef nonnull align 8 dereferenceable(16) %7, ptr noundef nonnull align 8 dereferenceable(32) %0)
          to label %8 unwind label %9

8:                                                ; preds = %6
  tail call void @__cxa_throw(ptr nonnull %7, ptr nonnull @_ZTISt12out_of_range, ptr nonnull @_ZNSt12out_of_rangeD1Ev) #28
  unreachable

9:                                                ; preds = %6
  %10 = landingpad { ptr, i32 }
          cleanup
  tail call void @__cxa_free_exception(ptr nonnull %7) #26
  resume { ptr, i32 } %10
}